target datalayout = "e-m:e-p270:32:32-p271:32:32-p272:64:64-i64:64-i128:128-f80:128-n8:16:32:64-S128"
target triple = "x86_64-pc-linux-gnu"

%struct.AVFormatContext = type { ptr, ptr, ptr, ptr, ptr, i32, i32, ptr, i32, ptr, i32, ptr, ptr, i64, i64, i64, i32, i32, i32, i64, i64, ptr, i32, i32, ptr, i32, i32, i32, i32, ptr, i64, i32, i32, %struct.AVIOInterruptCB, i32, i32, i32, i32, i64, i32, i32, i32, i32, i32, i32, i32, i32, i32, i32, i32, i32, i64, i32, i32, i32, i32, i32, ptr, ptr, ptr, ptr, i32, ptr, ptr, ptr, ptr, i32, ptr, ptr, i64, ptr, ptr, ptr, i64 }
%struct.AVIOInterruptCB = type { ptr, ptr }
%struct.PPBnkCtx = type { i32, ptr, i32, i32 }
%struct.PPBnkCtxTrack = type { i64, i32, i32 }

@.str.6 = private unnamed_addr constant [30 x i8] c"Assertion %s failed at %s:%d\0A\00", align 1
@.str.7 = private unnamed_addr constant [18 x i8] c"stream_index == 0\00", align 1
@.str.8 = private unnamed_addr constant [21 x i8] c"libavformat/pp_bnk.c\00", align 1

; Function Attrs: nounwind uwtable
define internal i32 @pp_bnk_seek(ptr noundef %0, i32 noundef %1, i64 noundef %2, i32 noundef %3) #0 {
  %5 = alloca i32, align 4
  %6 = alloca ptr, align 8
  %7 = alloca i32, align 4
  %8 = alloca i64, align 8
  %9 = alloca i32, align 4
  %10 = alloca ptr, align 8
  %11 = alloca i32, align 4
  store ptr %0, ptr %6, align 8, !tbaa !15
  store i32 %1, ptr %7, align 4, !tbaa !14
  store i64 %2, ptr %8, align 8, !tbaa !35
  store i32 %3, ptr %9, align 4, !tbaa !14
  call void @llvm.lifetime.start.p0(i64 8, ptr %10) #5
  %12 = load ptr, ptr %6, align 8, !tbaa !15
  %13 = getelementptr inbounds nuw %struct.AVFormatContext, ptr %12, i32 0, i32 3
  %14 = load ptr, ptr %13, align 8, !tbaa !17
  store ptr %14, ptr %10, align 8, !tbaa !32
  %15 = load i64, ptr %8, align 8, !tbaa !35
  %16 = icmp ne i64 %15, 0
  br i1 %16, label %17, label %18

17:                                               ; preds = %4
  store i32 -22, ptr %5, align 4
  store i32 1, ptr %11, align 4
  br label %50

18:                                               ; preds = %4
  %19 = load ptr, ptr %10, align 8, !tbaa !32
  %20 = getelementptr inbounds nuw %struct.PPBnkCtx, ptr %19, i32 0, i32 3
  %21 = load i32, ptr %20, align 4, !tbaa !57
  %22 = icmp ne i32 %21, 0
  br i1 %22, label %23, label %41

23:                                               ; preds = %18
  br label %24

24:                                               ; preds = %23
  %25 = load i32, ptr %7, align 4, !tbaa !14
  %26 = icmp eq i32 %25, 0
  br i1 %26, label %28, label %27

27:                                               ; preds = %24
  call void (ptr, i32, ptr, ...) @av_log(ptr noundef null, i32 noundef 0, ptr noundef @.str.6, ptr noundef @.str.7, ptr noundef @.str.8, i32 noundef 310)
  call void @abort() #6
  unreachable

28:                                               ; preds = %24
  br label %29

29:                                               ; preds = %28
  br label %30

30:                                               ; preds = %29
  %31 = load ptr, ptr %10, align 8, !tbaa !32
  %32 = getelementptr inbounds nuw %struct.PPBnkCtx, ptr %31, i32 0, i32 1
  %33 = load ptr, ptr %32, align 8, !tbaa !43
  %34 = getelementptr inbounds %struct.PPBnkCtxTrack, ptr %33, i64 0
  %35 = getelementptr inbounds nuw %struct.PPBnkCtxTrack, ptr %34, i32 0, i32 2
  store i32 0, ptr %35, align 4, !tbaa !53
  %36 = load ptr, ptr %10, align 8, !tbaa !32
  %37 = getelementptr inbounds nuw %struct.PPBnkCtx, ptr %36, i32 0, i32 1
  %38 = load ptr, ptr %37, align 8, !tbaa !43
  %39 = getelementptr inbounds %struct.PPBnkCtxTrack, ptr %38, i64 1
  %40 = getelementptr inbounds nuw %struct.PPBnkCtxTrack, ptr %39, i32 0, i32 2
  store i32 0, ptr %40, align 4, !tbaa !53
  br label %49

41:                                               ; preds = %18
  %42 = load ptr, ptr %10, align 8, !tbaa !32
  %43 = getelementptr inbounds nuw %struct.PPBnkCtx, ptr %42, i32 0, i32 1
  %44 = load ptr, ptr %43, align 8, !tbaa !43
  %45 = load i32, ptr %7, align 4, !tbaa !14
  %46 = sext i32 %45 to i64
  %47 = getelementptr inbounds %struct.PPBnkCtxTrack, ptr %44, i64 %46
  %48 = getelementptr inbounds nuw %struct.PPBnkCtxTrack, ptr %47, i32 0, i32 2
  store i32 0, ptr %48, align 4, !tbaa !53
  br label %49

49:                                               ; preds = %41, %30
  store i32 0, ptr %5, align 4
  store i32 1, ptr %11, align 4
  br label %50

50:                                               ; preds = %49, %17
  call void @llvm.lifetime.end.p0(i64 8, ptr %10) #5
  %51 = load i32, ptr %5, align 4
  ret i32 %51
}