; Function Attrs: nounwind uwtable
define internal range(i32 -22, 1) i32 @pp_bnk_seek(ptr noundef readonly captures(none) %0, i32 noundef %1, i64 noundef %2, i32 %3) #1 {
  %5 = getelementptr inbounds nuw i8, ptr %0, i64 24
  %6 = load ptr, ptr %5, align 8, !tbaa !12
  %.not = icmp eq i64 %2, 0
  br i1 %.not, label %7, label %23

7:                                                ; preds = %4
  %8 = getelementptr inbounds nuw i8, ptr %6, i64 20
  %9 = load i32, ptr %8, align 4, !tbaa !38
  %.not8 = icmp eq i32 %9, 0
  br i1 %.not8, label %18, label %10

10:                                               ; preds = %7
  %11 = icmp eq i32 %1, 0
  br i1 %11, label %13, label %12

12:                                               ; preds = %10
  tail call void (ptr, i32, ptr, ...) @av_log(ptr noundef null, i32 noundef 0, ptr noundef nonnull @.str.6, ptr noundef nonnull @.str.7, ptr noundef nonnull @.str.8, i32 noundef 310) #6
  tail call void @abort() #7
  unreachable

13:                                               ; preds = %10
  %14 = getelementptr inbounds nuw i8, ptr %6, i64 8
  %15 = load ptr, ptr %14, align 8, !tbaa !31
  %16 = getelementptr inbounds nuw i8, ptr %15, i64 12
  store i32 0, ptr %16, align 4, !tbaa !35
  %17 = getelementptr inbounds nuw i8, ptr %15, i64 28
  store i32 0, ptr %17, align 4, !tbaa !35
  br label %23

18:                                               ; preds = %7
  %19 = getelementptr inbounds nuw i8, ptr %6, i64 8
  %20 = load ptr, ptr %19, align 8, !tbaa !31
  %21 = sext i32 %1 to i64
  %22 = getelementptr inbounds %struct.PPBnkCtxTrack, ptr %20, i64 %21, i32 2
  store i32 0, ptr %22, align 4, !tbaa !35
  br label %23

23:                                               ; preds = %13, %18, %4
  %.0 = phi i32 [ -22, %4 ], [ 0, %18 ], [ 0, %13 ]
  ret i32 %.0
}